; Function Attrs: mustprogress uwtable
define void @_ZNK3gmx18FloatOptionStorage17formatSingleValueB5cxx11ERKf(ptr dead_on_unwind noalias writable sret(%"class.std::__cxx11::basic_string") align 8 %0, ptr noundef nonnull readonly align 8 captures(none) dereferenceable(232) %1, ptr noundef nonnull readonly align 4 captures(none) dereferenceable(4) %2) unnamed_addr #2 align 2 {
  %4 = load float, ptr %2, align 4, !tbaa !211
  %5 = fpext float %4 to double
  %6 = getelementptr inbounds nuw i8, ptr %1, i64 224
  %7 = load double, ptr %6, align 8, !tbaa !210
  %8 = fdiv double %5, %7
  tail call void (ptr, ptr, ...) @_ZN3gmx12formatStringB5cxx11EPKcz(ptr dead_on_unwind writable sret(%"class.std::__cxx11::basic_string") align 8 %0, ptr noundef nonnull @.str.27, double noundef %8)
  ret void
}